; Function Attrs: mustprogress uwtable
define void @_ZNK8QuantLib12BatesProcess5driftEdRKNS_5ArrayE(ptr dead_on_unwind noalias writable sret(%"class.QuantLib::Array") align 8 %agg.result, ptr noundef nonnull align 8 dereferenceable(320) %this, double noundef %t, ptr noundef nonnull align 8 dereferenceable(16) %x) unnamed_addr #6 align 2 personality ptr @__gxx_personality_v0 {
entry:
  tail call void @_ZNK8QuantLib13HestonProcess5driftEdRKNS_5ArrayE(ptr dead_on_unwind writable sret(%"class.QuantLib::Array") align 8 %agg.result, ptr noundef nonnull align 8 dereferenceable(220) %this, double noundef %t, ptr noundef nonnull align 8 dereferenceable(16) %x)
  %lambda_ = getelementptr inbounds nuw i8, ptr %this, i64 224
  %0 = load double, ptr %lambda_, align 8, !tbaa !36
  %m_ = getelementptr inbounds nuw i8, ptr %this, i64 248
  %1 = load double, ptr %m_, align 8, !tbaa !59
  %2 = load ptr, ptr %agg.result, align 8, !tbaa !3
  %3 = load double, ptr %2, align 8, !tbaa !67
  %neg = fneg double %0
  %4 = tail call double @llvm.fmuladd.f64(double %neg, double %1, double %3)
  store double %4, ptr %2, align 8, !tbaa !67
  ret void
}